; ModuleID = '50/205.c'
source_filename = "50/205.c"
target datalayout = "e-m:e-p270:32:32-p271:32:32-p272:64:64-i64:64-f80:128-n8:16:32:64-S128"
target triple = "x86_64-pc-linux-gnu"

@__const.search.a = private unnamed_addr constant [12 x i32] [i32 12, i32 43, i32 71, i32 102, i32 132, i32 163, i32 193, i32 224, i32 255, i32 285, i32 316, i32 346], align 16
@.str = private unnamed_addr constant [3 x i8] c"%d\00", align 1
@.str.1 = private unnamed_addr constant [4 x i8] c"%d\0A\00", align 1

; Function Attrs: noinline nounwind uwtable
define dso_local void @search(i32 %0) #0 {
  %2 = alloca i32, align 4
  %3 = alloca [12 x i32], align 16
  %4 = alloca [12 x i32], align 16
  %5 = alloca i32, align 4
  %6 = alloca i32, align 4
  %7 = alloca i32, align 4
  %8 = alloca i32, align 4
  store i32 %0, i32* %2, align 4
  %9 = bitcast [12 x i32]* %3 to i8*
  call void @llvm.memcpy.p0i8.p0i8.i64(i8* align 16 %9, i8* align 16 bitcast ([12 x i32]* @__const.search.a to i8*), i64 48, i1 false)
  store i32 0, i32* %5, align 4
  store i32 0, i32* %6, align 4
  br label %10

10:                                               ; preds = %33, %1
  %11 = load i32, i32* %6, align 4
  %12 = icmp slt i32 %11, 12
  br i1 %12, label %13, label %36

13:                                               ; preds = %10
  %14 = load i32, i32* %2, align 4
  %15 = load i32, i32* %6, align 4
  %16 = sext i32 %15 to i64
  %17 = getelementptr inbounds [12 x i32], [12 x i32]* %3, i64 0, i64 %16
  %18 = load i32, i32* %17, align 4
  %19 = add nsw i32 %14, %18
  %20 = srem i32 %19, 7
  store i32 %20, i32* %8, align 4
  %21 = load i32, i32* %8, align 4
  %22 = icmp eq i32 %21, 5
  br i1 %22, label %23, label %32

23:                                               ; preds = %13
  %24 = load i32, i32* %6, align 4
  %25 = add nsw i32 %24, 1
  store i32 %25, i32* %7, align 4
  %26 = load i32, i32* %7, align 4
  %27 = load i32, i32* %5, align 4
  %28 = sext i32 %27 to i64
  %29 = getelementptr inbounds [12 x i32], [12 x i32]* %4, i64 0, i64 %28
  store i32 %26, i32* %29, align 4
  %30 = load i32, i32* %5, align 4
  %31 = add nsw i32 %30, 1
  store i32 %31, i32* %5, align 4
  br label %32

32:                                               ; preds = %23, %13
  br label %33

33:                                               ; preds = %32
  %34 = load i32, i32* %6, align 4
  %35 = add nsw i32 %34, 1
  store i32 %35, i32* %6, align 4
  br label %10

36:                                               ; preds = %10
  store i32 0, i32* %6, align 4
  br label %37

37:                                               ; preds = %59, %36
  %38 = load i32, i32* %6, align 4
  %39 = load i32, i32* %5, align 4
  %40 = icmp slt i32 %38, %39
  br i1 %40, label %41, label %62

41:                                               ; preds = %37
  %42 = load i32, i32* %6, align 4
  %43 = load i32, i32* %5, align 4
  %44 = sub nsw i32 %43, 1
  %45 = icmp eq i32 %42, %44
  br i1 %45, label %46, label %52

46:                                               ; preds = %41
  %47 = load i32, i32* %6, align 4
  %48 = sext i32 %47 to i64
  %49 = getelementptr inbounds [12 x i32], [12 x i32]* %4, i64 0, i64 %48
  %50 = load i32, i32* %49, align 4
  %51 = call i32 (i8*, ...) @printf(i8* getelementptr inbounds ([3 x i8], [3 x i8]* @.str, i64 0, i64 0), i32 %50)
  br label %58

52:                                               ; preds = %41
  %53 = load i32, i32* %6, align 4
  %54 = sext i32 %53 to i64
  %55 = getelementptr inbounds [12 x i32], [12 x i32]* %4, i64 0, i64 %54
  %56 = load i32, i32* %55, align 4
  %57 = call i32 (i8*, ...) @printf(i8* getelementptr inbounds ([4 x i8], [4 x i8]* @.str.1, i64 0, i64 0), i32 %56)
  br label %58

58:                                               ; preds = %52, %46
  br label %59

59:                                               ; preds = %58
  %60 = load i32, i32* %6, align 4
  %61 = add nsw i32 %60, 1
  store i32 %61, i32* %6, align 4
  br label %37

62:                                               ; preds = %37
  ret void
}

; Function Attrs: argmemonly nounwind willreturn
declare void @llvm.memcpy.p0i8.p0i8.i64(i8* noalias nocapture writeonly, i8* noalias nocapture readonly, i64, i1 immarg) #1

declare dso_local i32 @printf(i8*, ...) #2

; Function Attrs: noinline nounwind uwtable
define dso_local void @main() #0 {
  %1 = alloca i32, align 4
  %2 = call i32 (i8*, ...) @__isoc99_scanf(i8* getelementptr inbounds ([3 x i8], [3 x i8]* @.str, i64 0, i64 0), i32* %1)
  %3 = load i32, i32* %1, align 4
  call void @search(i32 %3)
  ret void
}

declare dso_local i32 @__isoc99_scanf(i8*, ...) #2


!llvm.module.flags = !{!0}
!llvm.ident = !{!1}

!0 = !{i32 1, !"wchar_size", i32 4}
!1 = !{!"clang version 10.0.0-4ubuntu1 "}
